---
triple:          'arm64-apple-darwin'
binary-path:     imnothappy
relocations:
  - { offset: 0x559B, size: 0x8, addend: 0x0, symName: __ZStL8__ioinit, symObjAddr: 0x214A7, symBinAddr: 0x100008000, symSize: 0x0 }
  - { offset: 0x59D3, size: 0x8, addend: 0x0, symName: __GLOBAL__sub_I_happy_num.cpp, symObjAddr: 0x1294, symBinAddr: 0x100001930, symSize: 0x14 }
  - { offset: 0x59EA, size: 0x8, addend: 0x0, symName: __Z41__static_initialization_and_destruction_0v, symObjAddr: 0x1258, symBinAddr: 0x1000018F4, symSize: 0x3C }
  - { offset: 0x5A77, size: 0x8, addend: 0x0, symName: __ZNSt15__new_allocatorISt13_Rb_tree_nodeIxEE8allocateEmPKv, symObjAddr: 0x116C, symBinAddr: 0x100001864, symSize: 0x90 }
  - { offset: 0x5B6A, size: 0x8, addend: 0x0, symName: __ZNK9__gnu_cxx16__aligned_membufIxE7_M_addrEv, symObjAddr: 0x1158, symBinAddr: 0x100001850, symSize: 0x14 }
  - { offset: 0x5B96, size: 0x8, addend: 0x0, symName: __ZN9__gnu_cxx16__aligned_membufIxE7_M_addrEv, symObjAddr: 0x1144, symBinAddr: 0x10000183C, symSize: 0x14 }
  - { offset: 0x5BBE, size: 0x8, addend: 0x0, symName: __ZNSt8_Rb_treeIxxSt9_IdentityIxESt4lessIxESaIxEE17_M_construct_nodeIJRKxEEEvPSt13_Rb_tree_nodeIxEDpOT_, symObjAddr: 0x1044, symBinAddr: 0x10000173C, symSize: 0x100 }
  - { offset: 0x5D25, size: 0x8, addend: 0x0, symName: __ZNSt8_Rb_treeIxxSt9_IdentityIxESt4lessIxESaIxEE11_M_get_nodeEv, symObjAddr: 0x1008, symBinAddr: 0x100001700, symSize: 0x3C }
  - { offset: 0x5D77, size: 0x8, addend: 0x0, symName: __ZNK9__gnu_cxx16__aligned_membufIxE6_M_ptrEv, symObjAddr: 0xFEC, symBinAddr: 0x1000016E4, symSize: 0x1C }
  - { offset: 0x5D9F, size: 0x8, addend: 0x0, symName: __ZNSt15__new_allocatorISt13_Rb_tree_nodeIxEE10deallocateEPS1_m, symObjAddr: 0xFB0, symBinAddr: 0x1000016A8, symSize: 0x3C }
  - { offset: 0x5E0E, size: 0x8, addend: 0x0, symName: __ZN9__gnu_cxx16__aligned_membufIxE6_M_ptrEv, symObjAddr: 0xF94, symBinAddr: 0x10000168C, symSize: 0x1C }
  - { offset: 0x5E36, size: 0x8, addend: 0x0, symName: __ZNSt8_Rb_treeIxxSt9_IdentityIxESt4lessIxESaIxEE14_M_create_nodeIJRKxEEEPSt13_Rb_tree_nodeIxEDpOT_, symObjAddr: 0xF50, symBinAddr: 0x100001648, symSize: 0x44 }
  - { offset: 0x5EFD, size: 0x8, addend: 0x0, symName: __ZNKSt13_Rb_tree_nodeIxE9_M_valptrEv, symObjAddr: 0xF30, symBinAddr: 0x100001628, symSize: 0x20 }
  - { offset: 0x5F7D, size: 0x8, addend: 0x0, symName: __ZNSt13_Rb_tree_nodeIxE9_M_valptrEv, symObjAddr: 0xF10, symBinAddr: 0x100001608, symSize: 0x20 }
  - { offset: 0x5FA5, size: 0x8, addend: 0x0, symName: __ZNSt8_Rb_treeIxxSt9_IdentityIxESt4lessIxESaIxEE21_M_get_Node_allocatorEv, symObjAddr: 0xEFC, symBinAddr: 0x1000015F4, symSize: 0x14 }
  - { offset: 0x6019, size: 0x8, addend: 0x0, symName: __ZNSt9__rb_tree12_Node_traitsIxPxE23_S_insert_and_rebalanceEbPSt18_Rb_tree_node_baseS4_RS3_, symObjAddr: 0xEC4, symBinAddr: 0x1000015BC, symSize: 0x38 }
  - { offset: 0x6080, size: 0x8, addend: 0x0, symName: __ZNKSt8_Rb_treeIxxSt9_IdentityIxESt4lessIxESaIxEE11_Alloc_nodeclIRKxEEPSt13_Rb_tree_nodeIxEOT_, symObjAddr: 0xE94, symBinAddr: 0x10000158C, symSize: 0x30 }
  - { offset: 0x6127, size: 0x8, addend: 0x0, symName: __ZNSt4pairIPSt18_Rb_tree_node_baseS1_EC1IRS1_S1_Lb1EEEOT_OT0_, symObjAddr: 0xE48, symBinAddr: 0x100001540, symSize: 0x4C }
  - { offset: 0x61B1, size: 0x8, addend: 0x0, symName: __ZNSt17_Rb_tree_iteratorIxEmmEv, symObjAddr: 0xE18, symBinAddr: 0x100001510, symSize: 0x30 }
  - { offset: 0x621D, size: 0x8, addend: 0x0, symName: __ZNSt4pairIPSt18_Rb_tree_node_baseS1_EC1IRS1_S4_Lb1EEEOT_OT0_, symObjAddr: 0xDCC, symBinAddr: 0x1000014C4, symSize: 0x4C }
  - { offset: 0x62A9, size: 0x8, addend: 0x0, symName: __ZSteqRKSt17_Rb_tree_iteratorIxES2_, symObjAddr: 0xD9C, symBinAddr: 0x100001494, symSize: 0x30 }
  - { offset: 0x62E5, size: 0x8, addend: 0x0, symName: __ZNSt8_Rb_treeIxxSt9_IdentityIxESt4lessIxESaIxEE5beginEv, symObjAddr: 0xD74, symBinAddr: 0x10000146C, symSize: 0x28 }
  - { offset: 0x6309, size: 0x8, addend: 0x0, symName: __ZNSt8_Rb_treeIxxSt9_IdentityIxESt4lessIxESaIxEE6_S_keyERKSt13_Rb_tree_nodeIxE, symObjAddr: 0xD4C, symBinAddr: 0x100001444, symSize: 0x28 }
  - { offset: 0x6331, size: 0x8, addend: 0x0, symName: __ZNSt8_Rb_treeIxxSt9_IdentityIxESt4lessIxESaIxEE8_S_rightEPSt18_Rb_tree_node_base, symObjAddr: 0xD34, symBinAddr: 0x10000142C, symSize: 0x18 }
  - { offset: 0x6359, size: 0x8, addend: 0x0, symName: __ZNSt8_Rb_treeIxxSt9_IdentityIxESt4lessIxESaIxEE7_S_leftEPSt18_Rb_tree_node_base, symObjAddr: 0xD1C, symBinAddr: 0x100001414, symSize: 0x18 }
  - { offset: 0x6385, size: 0x8, addend: 0x0, symName: __ZNSt8_Rb_treeIxxSt9_IdentityIxESt4lessIxESaIxEE11_M_put_nodeEPSt13_Rb_tree_nodeIxE, symObjAddr: 0xCD0, symBinAddr: 0x1000013C8, symSize: 0x4C }
  - { offset: 0x63EF, size: 0x8, addend: 0x0, symName: __ZNSt8_Rb_treeIxxSt9_IdentityIxESt4lessIxESaIxEE15_M_destroy_nodeEPSt13_Rb_tree_nodeIxE, symObjAddr: 0xC78, symBinAddr: 0x100001370, symSize: 0x58 }
  - { offset: 0x64A0, size: 0x8, addend: 0x0, symName: __ZNSt23_Rb_tree_const_iteratorIxEC1ERKSt17_Rb_tree_iteratorIxE, symObjAddr: 0xC50, symBinAddr: 0x100001348, symSize: 0x28 }
  - { offset: 0x653B, size: 0x8, addend: 0x0, symName: __ZNSt17_Rb_tree_iteratorIxEC1EPSt18_Rb_tree_node_base, symObjAddr: 0xC2C, symBinAddr: 0x100001324, symSize: 0x24 }
  - { offset: 0x65AB, size: 0x8, addend: 0x0, symName: __ZNSt4pairISt17_Rb_tree_iteratorIxEbEC1IS1_bLb1EEEOT_OT0_, symObjAddr: 0xBE0, symBinAddr: 0x1000012D8, symSize: 0x4C }
  - { offset: 0x663B, size: 0x8, addend: 0x0, symName: __ZNSt8_Rb_treeIxxSt9_IdentityIxESt4lessIxESaIxEE10_M_insert_IRKxNS5_11_Alloc_nodeEEESt17_Rb_tree_iteratorIxEPSt18_Rb_tree_node_baseSD_OT_RT0_, symObjAddr: 0xAE8, symBinAddr: 0x1000011E0, symSize: 0xF8 }
  - { offset: 0x6741, size: 0x8, addend: 0x0, symName: __ZNSt8_Rb_treeIxxSt9_IdentityIxESt4lessIxESaIxEE11_Alloc_nodeC1ERS5_, symObjAddr: 0xAC4, symBinAddr: 0x1000011BC, symSize: 0x24 }
  - { offset: 0x676D, size: 0x8, addend: 0x0, symName: __ZNKSt9_IdentityIxEclERKx, symObjAddr: 0xAAC, symBinAddr: 0x1000011A4, symSize: 0x18 }
  - { offset: 0x67A5, size: 0x8, addend: 0x0, symName: __ZNSt8_Rb_treeIxxSt9_IdentityIxESt4lessIxESaIxEE24_M_get_insert_unique_posERKx, symObjAddr: 0x954, symBinAddr: 0x10000104C, symSize: 0x158 }
  - { offset: 0x6822, size: 0x8, addend: 0x0, symName: __ZNKSt4lessIxEclERKxS2_, symObjAddr: 0x920, symBinAddr: 0x100001018, symSize: 0x34 }
  - { offset: 0x6866, size: 0x8, addend: 0x0, symName: __ZNSt8_Rb_treeIxxSt9_IdentityIxESt4lessIxESaIxEE6_S_keyEPSt18_Rb_tree_node_base, symObjAddr: 0x904, symBinAddr: 0x100000FFC, symSize: 0x1C }
  - { offset: 0x68B7, size: 0x8, addend: 0x0, symName: __ZNSt23_Rb_tree_const_iteratorIxEC1EPSt18_Rb_tree_node_base, symObjAddr: 0x8E0, symBinAddr: 0x100000FD8, symSize: 0x24 }
  - { offset: 0x68E3, size: 0x8, addend: 0x0, symName: __ZNKSt8_Rb_treeIxxSt9_IdentityIxESt4lessIxESaIxEE6_M_endEv, symObjAddr: 0x8C0, symBinAddr: 0x100000FB8, symSize: 0x20 }
  - { offset: 0x690B, size: 0x8, addend: 0x0, symName: __ZNKSt8_Rb_treeIxxSt9_IdentityIxESt4lessIxESaIxEE8_M_beginEv, symObjAddr: 0x8A8, symBinAddr: 0x100000FA0, symSize: 0x18 }
  - { offset: 0x6933, size: 0x8, addend: 0x0, symName: __ZNKSt8_Rb_treeIxxSt9_IdentityIxESt4lessIxESaIxEE14_M_lower_boundEPSt18_Rb_tree_node_baseS7_RKx, symObjAddr: 0x818, symBinAddr: 0x100000F10, symSize: 0x90 }
  - { offset: 0x698B, size: 0x8, addend: 0x0, symName: __ZNSt13_Rb_tree_nodeIxE11_M_node_ptrEv, symObjAddr: 0x804, symBinAddr: 0x100000EFC, symSize: 0x14 }
  - { offset: 0x69B3, size: 0x8, addend: 0x0, symName: __ZNSt8_Rb_treeIxxSt9_IdentityIxESt4lessIxESaIxEE12_M_drop_nodeEPSt13_Rb_tree_nodeIxE, symObjAddr: 0x7D0, symBinAddr: 0x100000EC8, symSize: 0x34 }
  - { offset: 0x69E7, size: 0x8, addend: 0x0, symName: __ZNSt8_Rb_treeIxxSt9_IdentityIxESt4lessIxESaIxEE7_S_leftEPSt13_Rb_tree_nodeIxE, symObjAddr: 0x798, symBinAddr: 0x100000E90, symSize: 0x38 }
  - { offset: 0x6A0F, size: 0x8, addend: 0x0, symName: __ZNSt8_Rb_treeIxxSt9_IdentityIxESt4lessIxESaIxEE8_S_rightEPSt13_Rb_tree_nodeIxE, symObjAddr: 0x760, symBinAddr: 0x100000E58, symSize: 0x38 }
  - { offset: 0x6A93, size: 0x8, addend: 0x0, symName: __ZNSt4pairISt23_Rb_tree_const_iteratorIxEbEC1IRSt17_Rb_tree_iteratorIxERbLb1EEEOT_OT0_, symObjAddr: 0x714, symBinAddr: 0x100000E0C, symSize: 0x4C }
  - { offset: 0x6B1D, size: 0x8, addend: 0x0, symName: __ZNSt8_Rb_treeIxxSt9_IdentityIxESt4lessIxESaIxEE16_M_insert_uniqueIRKxEESt4pairISt17_Rb_tree_iteratorIxEbEOT_, symObjAddr: 0x650, symBinAddr: 0x100000D48, symSize: 0xC4 }
  - { offset: 0x6BB8, size: 0x8, addend: 0x0, symName: __ZSteqRKSt23_Rb_tree_const_iteratorIxES2_, symObjAddr: 0x620, symBinAddr: 0x100000D18, symSize: 0x30 }
  - { offset: 0x6BF4, size: 0x8, addend: 0x0, symName: __ZNKSt8_Rb_treeIxxSt9_IdentityIxESt4lessIxESaIxEE3endEv, symObjAddr: 0x5F4, symBinAddr: 0x100000CEC, symSize: 0x2C }
  - { offset: 0x6C1C, size: 0x8, addend: 0x0, symName: __ZNKSt8_Rb_treeIxxSt9_IdentityIxESt4lessIxESaIxEE4findERKx, symObjAddr: 0x544, symBinAddr: 0x100000C3C, symSize: 0xB0 }
  - { offset: 0x6C64, size: 0x8, addend: 0x0, symName: __ZNKSt8_Rb_treeIxxSt9_IdentityIxESt4lessIxESaIxEE13_M_begin_nodeEv, symObjAddr: 0x508, symBinAddr: 0x100000C00, symSize: 0x3C }
  - { offset: 0x6C9C, size: 0x8, addend: 0x0, symName: __ZNSt8_Rb_treeIxxSt9_IdentityIxESt4lessIxESaIxEE8_M_eraseEPSt13_Rb_tree_nodeIxE, symObjAddr: 0x4A4, symBinAddr: 0x100000B9C, symSize: 0x64 }
  - { offset: 0x6D0E, size: 0x8, addend: 0x0, symName: __ZNSt15__new_allocatorISt13_Rb_tree_nodeIxEED2Ev, symObjAddr: 0x490, symBinAddr: 0x100000B88, symSize: 0x14 }
  - { offset: 0x6D4A, size: 0x8, addend: 0x0, symName: __ZNSt20_Rb_tree_key_compareISt4lessIxEEC2Ev, symObjAddr: 0x47C, symBinAddr: 0x100000B74, symSize: 0x14 }
  - { offset: 0x6D82, size: 0x8, addend: 0x0, symName: __ZNSt3setIxSt4lessIxESaIxEE6insertERKx, symObjAddr: 0x43C, symBinAddr: 0x100000B34, symSize: 0x40 }
  - { offset: 0x6DCA, size: 0x8, addend: 0x0, symName: __ZNKSt3setIxSt4lessIxESaIxEE5countERKx, symObjAddr: 0x3E4, symBinAddr: 0x100000ADC, symSize: 0x58 }
  - { offset: 0x6E1A, size: 0x8, addend: 0x0, symName: __ZNSt8_Rb_treeIxxSt9_IdentityIxESt4lessIxESaIxEED1Ev, symObjAddr: 0x3B0, symBinAddr: 0x100000AA8, symSize: 0x34 }
  - { offset: 0x6E6A, size: 0x8, addend: 0x0, symName: __ZNSt8_Rb_treeIxxSt9_IdentityIxESt4lessIxESaIxEE13_Rb_tree_implIS3_Lb1EEC1Ev, symObjAddr: 0x36C, symBinAddr: 0x100000A64, symSize: 0x44 }
  - { offset: 0x6ED4, size: 0x8, addend: 0x0, symName: _main, symObjAddr: 0x134, symBinAddr: 0x10000082C, symSize: 0x238 }
  - { offset: 0x6F60, size: 0x8, addend: 0x0, symName: __ZNSt3setIxSt4lessIxESaIxEED1Ev, symObjAddr: 0x114, symBinAddr: 0x10000080C, symSize: 0x20 }
  - { offset: 0x6F9C, size: 0x8, addend: 0x0, symName: __ZNSt3setIxSt4lessIxESaIxEEC1Ev, symObjAddr: 0xF4, symBinAddr: 0x1000007EC, symSize: 0x20 }
  - { offset: 0x6FD8, size: 0x8, addend: 0x0, symName: __ZNSt8_Rb_treeIxxSt9_IdentityIxESt4lessIxESaIxEEC1Ev, symObjAddr: 0xD4, symBinAddr: 0x1000007CC, symSize: 0x20 }
  - { offset: 0x7019, size: 0x8, addend: 0x0, symName: __ZNSt8_Rb_treeIxxSt9_IdentityIxESt4lessIxESaIxEE13_Rb_tree_implIS3_Lb1EED1Ev, symObjAddr: 0xA8, symBinAddr: 0x1000007A0, symSize: 0x2C }
  - { offset: 0x705F, size: 0x8, addend: 0x0, symName: __ZNSt15_Rb_tree_header8_M_resetEv, symObjAddr: 0x6C, symBinAddr: 0x100000764, symSize: 0x3C }
  - { offset: 0x709F, size: 0x8, addend: 0x0, symName: __ZNSt15_Rb_tree_headerC2Ev, symObjAddr: 0x44, symBinAddr: 0x10000073C, symSize: 0x28 }
  - { offset: 0x70C3, size: 0x8, addend: 0x0, symName: __ZNKSt18_Rb_tree_node_base11_M_base_ptrEv, symObjAddr: 0x30, symBinAddr: 0x100000728, symSize: 0x14 }
  - { offset: 0x70EF, size: 0x8, addend: 0x0, symName: __ZdlPvS_, symObjAddr: 0x18, symBinAddr: 0x100000710, symSize: 0x18 }
  - { offset: 0x7123, size: 0x8, addend: 0x0, symName: __ZnwmPv, symObjAddr: 0x0, symBinAddr: 0x1000006F8, symSize: 0x18 }
...
